target datalayout = "e-m:e-p270:32:32-p271:32:32-p272:64:64-i64:64-i128:128-f80:128-n8:16:32:64-S128"
target triple = "x86_64-pc-linux-gnu"

%struct._zend_refcounted_h = type { i32, %union.anon.4 }
%union.anon.4 = type { i32 }
%struct._zend_string = type { %struct._zend_refcounted_h, i64, i64, [1 x i8] }
%struct._zend_ast = type { i16, i16, i32, [1 x ptr] }
%struct._zend_ast_list = type { i16, i16, i32, i32, [1 x ptr] }
%struct.smart_str = type { ptr, i64 }

@.str.169 = private unnamed_addr constant [5 x i8] c"    \00", align 1

; Function Attrs: nounwind uwtable
define internal void @zend_ast_export_indent(ptr noundef %0, i32 noundef %1) #0 {
  %3 = alloca ptr, align 8
  %4 = alloca i64, align 8
  %5 = alloca i8, align 1
  %6 = alloca ptr, align 8
  %7 = alloca ptr, align 8
  %8 = alloca i64, align 8
  %9 = alloca i8, align 1
  %10 = alloca i64, align 8
  %11 = alloca ptr, align 8
  %12 = alloca ptr, align 8
  %13 = alloca ptr, align 8
  %14 = alloca i32, align 4
  store ptr %0, ptr %13, align 8
  store i32 %1, ptr %14, align 4
  br label %15

15:                                               ; preds = %57, %2
  %16 = load i32, ptr %14, align 4
  %17 = icmp sgt i32 %16, 0
  br i1 %17, label %18, label %75

18:                                               ; preds = %15
  %19 = load ptr, ptr %13, align 8
  store ptr %19, ptr %11, align 8
  store ptr @.str.169, ptr %12, align 8
  %20 = load ptr, ptr %11, align 8
  %21 = load ptr, ptr %12, align 8
  %22 = load ptr, ptr %12, align 8
  %23 = call i64 @strlen(ptr noundef %22) #14
  store ptr %20, ptr %6, align 8
  store ptr %21, ptr %7, align 8
  store i64 %23, ptr %8, align 8
  store i8 0, ptr %9, align 1
  %24 = load ptr, ptr %6, align 8
  %25 = load i64, ptr %8, align 8
  %26 = load i8, ptr %9, align 1
  %27 = trunc i8 %26 to i1
  store ptr %24, ptr %3, align 8
  store i64 %25, ptr %4, align 8
  %28 = zext i1 %27 to i8
  store i8 %28, ptr %5, align 1
  %29 = load ptr, ptr %3, align 8
  %30 = load ptr, ptr %29, align 8
  %31 = icmp ne ptr %30, null
  %32 = xor i1 %31, true
  br i1 %32, label %33, label %34

33:                                               ; preds = %18
  br label %47

34:                                               ; preds = %18
  %35 = load ptr, ptr %3, align 8
  %36 = load ptr, ptr %35, align 8
  %37 = getelementptr inbounds %struct._zend_string, ptr %36, i32 0, i32 2
  %38 = load i64, ptr %37, align 8
  %39 = load i64, ptr %4, align 8
  %40 = add i64 %39, %38
  store i64 %40, ptr %4, align 8
  %41 = load i64, ptr %4, align 8
  %42 = load ptr, ptr %3, align 8
  %43 = getelementptr inbounds %struct.smart_str, ptr %42, i32 0, i32 1
  %44 = load i64, ptr %43, align 8
  %45 = icmp uge i64 %41, %44
  br i1 %45, label %46, label %57

46:                                               ; preds = %34
  br label %47

47:                                               ; preds = %46, %33
  %48 = load i8, ptr %5, align 1
  %49 = trunc i8 %48 to i1
  br i1 %49, label %50, label %53

50:                                               ; preds = %47
  %51 = load ptr, ptr %3, align 8
  %52 = load i64, ptr %4, align 8
  call void @smart_str_realloc(ptr noundef %51, i64 noundef %52) #10
  br label %56

53:                                               ; preds = %47
  %54 = load ptr, ptr %3, align 8
  %55 = load i64, ptr %4, align 8
  call void @smart_str_erealloc(ptr noundef %54, i64 noundef %55) #10
  br label %56

56:                                               ; preds = %53, %50
  br label %57

57:                                               ; preds = %56, %34
  %58 = load i64, ptr %4, align 8
  store i64 %58, ptr %10, align 8
  %59 = load ptr, ptr %6, align 8
  %60 = load ptr, ptr %59, align 8
  %61 = getelementptr inbounds %struct._zend_string, ptr %60, i32 0, i32 3
  %62 = load ptr, ptr %6, align 8
  %63 = load ptr, ptr %62, align 8
  %64 = getelementptr inbounds %struct._zend_string, ptr %63, i32 0, i32 2
  %65 = load i64, ptr %64, align 8
  %66 = getelementptr inbounds i8, ptr %61, i64 %65
  %67 = load ptr, ptr %7, align 8
  %68 = load i64, ptr %8, align 8
  call void @llvm.memcpy.p0.p0.i64(ptr align 1 %66, ptr align 1 %67, i64 %68, i1 false)
  %69 = load i64, ptr %10, align 8
  %70 = load ptr, ptr %6, align 8
  %71 = load ptr, ptr %70, align 8
  %72 = getelementptr inbounds %struct._zend_string, ptr %71, i32 0, i32 2
  store i64 %69, ptr %72, align 8
  %73 = load i32, ptr %14, align 4
  %74 = add nsw i32 %73, -1
  store i32 %74, ptr %14, align 4
  br label %15

75:                                               ; preds = %15
  ret void
}

; Function Attrs: nounwind uwtable
define internal void @zend_ast_export_stmt(ptr noundef %0, ptr noundef %1, i32 noundef %2) #0 {
  %4 = alloca ptr, align 8
  %5 = alloca i64, align 8
  %6 = alloca i8, align 1
  %7 = alloca ptr, align 8
  %8 = alloca i8, align 1
  %9 = alloca i8, align 1
  %10 = alloca i64, align 8
  %11 = alloca ptr, align 8
  %12 = alloca i64, align 8
  %13 = alloca i8, align 1
  %14 = alloca ptr, align 8
  %15 = alloca i8, align 1
  %16 = alloca i8, align 1
  %17 = alloca i64, align 8
  %18 = alloca ptr, align 8
  %19 = alloca i8, align 1
  %20 = alloca ptr, align 8
  %21 = alloca i8, align 1
  %22 = alloca ptr, align 8
  %23 = alloca ptr, align 8
  %24 = alloca i32, align 4
  %25 = alloca ptr, align 8
  %26 = alloca i32, align 4
  store ptr %0, ptr %22, align 8
  store ptr %1, ptr %23, align 8
  store i32 %2, ptr %24, align 4
  %27 = load ptr, ptr %23, align 8
  %28 = icmp ne ptr %27, null
  br i1 %28, label %30, label %29

29:                                               ; preds = %3
  br label %172

30:                                               ; preds = %3
  %31 = load ptr, ptr %23, align 8
  %32 = getelementptr inbounds %struct._zend_ast, ptr %31, i32 0, i32 0
  %33 = load i16, ptr %32, align 8
  %34 = zext i16 %33 to i32
  %35 = icmp eq i32 %34, 132
  br i1 %35, label %42, label %36

36:                                               ; preds = %30
  %37 = load ptr, ptr %23, align 8
  %38 = getelementptr inbounds %struct._zend_ast, ptr %37, i32 0, i32 0
  %39 = load i16, ptr %38, align 8
  %40 = zext i16 %39 to i32
  %41 = icmp eq i32 %40, 142
  br i1 %41, label %42, label %63

42:                                               ; preds = %36, %30
  %43 = load ptr, ptr %23, align 8
  store ptr %43, ptr %25, align 8
  store i32 0, ptr %26, align 4
  br label %44

44:                                               ; preds = %50, %42
  %45 = load i32, ptr %26, align 4
  %46 = load ptr, ptr %25, align 8
  %47 = getelementptr inbounds %struct._zend_ast_list, ptr %46, i32 0, i32 3
  %48 = load i32, ptr %47, align 8
  %49 = icmp ult i32 %45, %48
  br i1 %49, label %50, label %62

50:                                               ; preds = %44
  %51 = load ptr, ptr %25, align 8
  %52 = getelementptr inbounds %struct._zend_ast_list, ptr %51, i32 0, i32 4
  %53 = load i32, ptr %26, align 4
  %54 = zext i32 %53 to i64
  %55 = getelementptr inbounds [1 x ptr], ptr %52, i64 0, i64 %54
  %56 = load ptr, ptr %55, align 8
  store ptr %56, ptr %23, align 8
  %57 = load ptr, ptr %22, align 8
  %58 = load ptr, ptr %23, align 8
  %59 = load i32, ptr %24, align 4
  call void @zend_ast_export_stmt(ptr noundef %57, ptr noundef %58, i32 noundef %59)
  %60 = load i32, ptr %26, align 4
  %61 = add i32 %60, 1
  store i32 %61, ptr %26, align 4
  br label %44

62:                                               ; preds = %44
  br label %172

63:                                               ; preds = %36
  %64 = load ptr, ptr %22, align 8
  %65 = load i32, ptr %24, align 4
  call void @zend_ast_export_indent(ptr noundef %64, i32 noundef %65)
  %66 = load ptr, ptr %22, align 8
  %67 = load ptr, ptr %23, align 8
  %68 = load i32, ptr %24, align 4
  call void @zend_ast_export_ex(ptr noundef %66, ptr noundef %67, i32 noundef 0, i32 noundef %68)
  %69 = load ptr, ptr %23, align 8
  %70 = getelementptr inbounds %struct._zend_ast, ptr %69, i32 0, i32 0
  %71 = load i16, ptr %70, align 8
  %72 = zext i16 %71 to i32
  switch i32 %72, label %74 [
    i32 280, label %73
    i32 133, label %73
    i32 536, label %73
    i32 533, label %73
    i32 772, label %73
    i32 1024, label %73
    i32 1025, label %73
    i32 67, label %73
    i32 69, label %73
    i32 70, label %73
    i32 539, label %73
    i32 542, label %73
    i32 538, label %73
  ]

73:                                               ; preds = %63, %63, %63, %63, %63, %63, %63, %63, %63, %63, %63, %63, %63
  br label %123

74:                                               ; preds = %63
  %75 = load ptr, ptr %22, align 8
  store ptr %75, ptr %18, align 8
  store i8 59, ptr %19, align 1
  %76 = load ptr, ptr %18, align 8
  %77 = load i8, ptr %19, align 1
  store ptr %76, ptr %14, align 8
  store i8 %77, ptr %15, align 1
  store i8 0, ptr %16, align 1
  %78 = load ptr, ptr %14, align 8
  %79 = load i8, ptr %16, align 1
  %80 = trunc i8 %79 to i1
  store ptr %78, ptr %11, align 8
  store i64 1, ptr %12, align 8
  %81 = zext i1 %80 to i8
  store i8 %81, ptr %13, align 1
  %82 = load ptr, ptr %11, align 8
  %83 = load ptr, ptr %82, align 8
  %84 = icmp ne ptr %83, null
  %85 = xor i1 %84, true
  br i1 %85, label %86, label %87

86:                                               ; preds = %74
  br label %100

87:                                               ; preds = %74
  %88 = load ptr, ptr %11, align 8
  %89 = load ptr, ptr %88, align 8
  %90 = getelementptr inbounds %struct._zend_string, ptr %89, i32 0, i32 2
  %91 = load i64, ptr %90, align 8
  %92 = load i64, ptr %12, align 8
  %93 = add i64 %92, %91
  store i64 %93, ptr %12, align 8
  %94 = load i64, ptr %12, align 8
  %95 = load ptr, ptr %11, align 8
  %96 = getelementptr inbounds %struct.smart_str, ptr %95, i32 0, i32 1
  %97 = load i64, ptr %96, align 8
  %98 = icmp uge i64 %94, %97
  br i1 %98, label %99, label %110

99:                                               ; preds = %87
  br label %100

100:                                              ; preds = %99, %86
  %101 = load i8, ptr %13, align 1
  %102 = trunc i8 %101 to i1
  br i1 %102, label %103, label %106

103:                                              ; preds = %100
  %104 = load ptr, ptr %11, align 8
  %105 = load i64, ptr %12, align 8
  call void @smart_str_realloc(ptr noundef %104, i64 noundef %105) #10
  br label %109

106:                                              ; preds = %100
  %107 = load ptr, ptr %11, align 8
  %108 = load i64, ptr %12, align 8
  call void @smart_str_erealloc(ptr noundef %107, i64 noundef %108) #10
  br label %109

109:                                              ; preds = %106, %103
  br label %110

110:                                              ; preds = %109, %87
  %111 = load i64, ptr %12, align 8
  store i64 %111, ptr %17, align 8
  %112 = load i8, ptr %15, align 1
  %113 = load ptr, ptr %14, align 8
  %114 = load ptr, ptr %113, align 8
  %115 = getelementptr inbounds %struct._zend_string, ptr %114, i32 0, i32 3
  %116 = load i64, ptr %17, align 8
  %117 = sub i64 %116, 1
  %118 = getelementptr inbounds [1 x i8], ptr %115, i64 0, i64 %117
  store i8 %112, ptr %118, align 1
  %119 = load i64, ptr %17, align 8
  %120 = load ptr, ptr %14, align 8
  %121 = load ptr, ptr %120, align 8
  %122 = getelementptr inbounds %struct._zend_string, ptr %121, i32 0, i32 2
  store i64 %119, ptr %122, align 8
  br label %123

123:                                              ; preds = %110, %73
  %124 = load ptr, ptr %22, align 8
  store ptr %124, ptr %20, align 8
  store i8 10, ptr %21, align 1
  %125 = load ptr, ptr %20, align 8
  %126 = load i8, ptr %21, align 1
  store ptr %125, ptr %7, align 8
  store i8 %126, ptr %8, align 1
  store i8 0, ptr %9, align 1
  %127 = load ptr, ptr %7, align 8
  %128 = load i8, ptr %9, align 1
  %129 = trunc i8 %128 to i1
  store ptr %127, ptr %4, align 8
  store i64 1, ptr %5, align 8
  %130 = zext i1 %129 to i8
  store i8 %130, ptr %6, align 1
  %131 = load ptr, ptr %4, align 8
  %132 = load ptr, ptr %131, align 8
  %133 = icmp ne ptr %132, null
  %134 = xor i1 %133, true
  br i1 %134, label %135, label %136

135:                                              ; preds = %123
  br label %149

136:                                              ; preds = %123
  %137 = load ptr, ptr %4, align 8
  %138 = load ptr, ptr %137, align 8
  %139 = getelementptr inbounds %struct._zend_string, ptr %138, i32 0, i32 2
  %140 = load i64, ptr %139, align 8
  %141 = load i64, ptr %5, align 8
  %142 = add i64 %141, %140
  store i64 %142, ptr %5, align 8
  %143 = load i64, ptr %5, align 8
  %144 = load ptr, ptr %4, align 8
  %145 = getelementptr inbounds %struct.smart_str, ptr %144, i32 0, i32 1
  %146 = load i64, ptr %145, align 8
  %147 = icmp uge i64 %143, %146
  br i1 %147, label %148, label %159

148:                                              ; preds = %136
  br label %149

149:                                              ; preds = %148, %135
  %150 = load i8, ptr %6, align 1
  %151 = trunc i8 %150 to i1
  br i1 %151, label %152, label %155

152:                                              ; preds = %149
  %153 = load ptr, ptr %4, align 8
  %154 = load i64, ptr %5, align 8
  call void @smart_str_realloc(ptr noundef %153, i64 noundef %154) #10
  br label %158

155:                                              ; preds = %149
  %156 = load ptr, ptr %4, align 8
  %157 = load i64, ptr %5, align 8
  call void @smart_str_erealloc(ptr noundef %156, i64 noundef %157) #10
  br label %158

158:                                              ; preds = %155, %152
  br label %159

159:                                              ; preds = %158, %136
  %160 = load i64, ptr %5, align 8
  store i64 %160, ptr %10, align 8
  %161 = load i8, ptr %8, align 1
  %162 = load ptr, ptr %7, align 8
  %163 = load ptr, ptr %162, align 8
  %164 = getelementptr inbounds %struct._zend_string, ptr %163, i32 0, i32 3
  %165 = load i64, ptr %10, align 8
  %166 = sub i64 %165, 1
  %167 = getelementptr inbounds [1 x i8], ptr %164, i64 0, i64 %166
  store i8 %161, ptr %167, align 1
  %168 = load i64, ptr %10, align 8
  %169 = load ptr, ptr %7, align 8
  %170 = load ptr, ptr %169, align 8
  %171 = getelementptr inbounds %struct._zend_string, ptr %170, i32 0, i32 2
  store i64 %168, ptr %171, align 8
  br label %172

172:                                              ; preds = %159, %62, %29
  ret void
}