; Function Attrs: nounwind uwtable
define internal fastcc void @zend_ast_export_stmt(ptr noundef %0, ptr noundef %1, i32 noundef %2) unnamed_addr #0 {
  %.not = icmp eq ptr %1, null
  br i1 %.not, label %.loopexit, label %4

4:                                                ; preds = %3
  %5 = load i16, ptr %1, align 8
  switch i16 %5, label %16 [
    i16 132, label %6
    i16 142, label %6
  ]

6:                                                ; preds = %4, %4
  %7 = getelementptr inbounds i8, ptr %1, i64 8
  %8 = load i32, ptr %7, align 8
  %.not73 = icmp eq i32 %8, 0
  br i1 %.not73, label %.loopexit, label %.lr.ph

.lr.ph:                                           ; preds = %6
  %9 = getelementptr inbounds i8, ptr %1, i64 16
  br label %10

10:                                               ; preds = %.lr.ph, %10
  %indvars.iv = phi i64 [ 0, %.lr.ph ], [ %indvars.iv.next, %10 ]
  %11 = getelementptr inbounds [1 x ptr], ptr %9, i64 0, i64 %indvars.iv
  %12 = load ptr, ptr %11, align 8
  tail call fastcc void @zend_ast_export_stmt(ptr noundef %0, ptr noundef %12, i32 noundef %2)
  %indvars.iv.next = add nuw nsw i64 %indvars.iv, 1
  %13 = load i32, ptr %7, align 8
  %14 = zext i32 %13 to i64
  %15 = icmp ult i64 %indvars.iv.next, %14
  br i1 %15, label %10, label %.loopexit

16:                                               ; preds = %4
  %17 = icmp sgt i32 %2, 0
  br i1 %17, label %.lr.ph.i, label %zend_ast_export_indent.exit

.lr.ph.i:                                         ; preds = %16
  %18 = getelementptr inbounds i8, ptr %0, i64 8
  br label %19

19:                                               ; preds = %27, %.lr.ph.i
  %.029.i = phi i32 [ %2, %.lr.ph.i ], [ %34, %27 ]
  %20 = load ptr, ptr %0, align 8
  %.not.i = icmp eq ptr %20, null
  br i1 %.not.i, label %26, label %21

21:                                               ; preds = %19
  %22 = getelementptr inbounds i8, ptr %20, i64 16
  %23 = load i64, ptr %22, align 8
  %24 = add i64 %23, 4
  %25 = load i64, ptr %18, align 8
  %.not28.i = icmp ult i64 %24, %25
  br i1 %.not28.i, label %27, label %26

26:                                               ; preds = %21, %19
  %.025.i = phi i64 [ 4, %19 ], [ %24, %21 ]
  tail call void @smart_str_erealloc(ptr noundef nonnull %0, i64 noundef %.025.i) #14
  %.pre.i = load ptr, ptr %0, align 8
  %.phi.trans.insert.i = getelementptr inbounds i8, ptr %.pre.i, i64 16
  %.pre30.i = load i64, ptr %.phi.trans.insert.i, align 8
  br label %27

27:                                               ; preds = %26, %21
  %28 = phi i64 [ %.pre30.i, %26 ], [ %23, %21 ]
  %29 = phi ptr [ %.pre.i, %26 ], [ %20, %21 ]
  %.1.i = phi i64 [ %.025.i, %26 ], [ %24, %21 ]
  %30 = getelementptr inbounds i8, ptr %29, i64 24
  %31 = getelementptr inbounds i8, ptr %30, i64 %28
  store i32 538976288, ptr %31, align 1
  %32 = load ptr, ptr %0, align 8
  %33 = getelementptr inbounds i8, ptr %32, i64 16
  store i64 %.1.i, ptr %33, align 8
  %34 = add nsw i32 %.029.i, -1
  %35 = icmp sgt i32 %.029.i, 1
  br i1 %35, label %19, label %zend_ast_export_indent.exit

zend_ast_export_indent.exit:                      ; preds = %27, %16
  tail call fastcc void @zend_ast_export_ex(ptr noundef %0, ptr noundef nonnull %1, i32 noundef 0, i32 noundef %2)
  %36 = load i16, ptr %1, align 8
  switch i16 %36, label %37 [
    i16 280, label %53
    i16 133, label %53
    i16 536, label %53
    i16 533, label %53
    i16 772, label %53
    i16 1024, label %53
    i16 1025, label %53
    i16 67, label %53
    i16 69, label %53
    i16 70, label %53
    i16 539, label %53
    i16 542, label %53
    i16 538, label %53
  ]

37:                                               ; preds = %zend_ast_export_indent.exit
  %38 = load ptr, ptr %0, align 8
  %.not68 = icmp eq ptr %38, null
  br i1 %.not68, label %45, label %39

39:                                               ; preds = %37
  %40 = getelementptr inbounds i8, ptr %38, i64 16
  %41 = load i64, ptr %40, align 8
  %42 = add i64 %41, 1
  %43 = getelementptr inbounds i8, ptr %0, i64 8
  %44 = load i64, ptr %43, align 8
  %.not69 = icmp ult i64 %42, %44
  br i1 %.not69, label %46, label %45

45:                                               ; preds = %37, %39
  %.060 = phi i64 [ 1, %37 ], [ %42, %39 ]
  tail call void @smart_str_erealloc(ptr noundef nonnull %0, i64 noundef %.060) #14
  %.pre = load ptr, ptr %0, align 8
  br label %46

46:                                               ; preds = %45, %39
  %47 = phi ptr [ %.pre, %45 ], [ %38, %39 ]
  %.161 = phi i64 [ %.060, %45 ], [ %42, %39 ]
  %48 = getelementptr inbounds i8, ptr %47, i64 24
  %49 = add i64 %.161, -1
  %50 = getelementptr inbounds [1 x i8], ptr %48, i64 0, i64 %49
  store i8 59, ptr %50, align 1
  %51 = load ptr, ptr %0, align 8
  %52 = getelementptr inbounds i8, ptr %51, i64 16
  store i64 %.161, ptr %52, align 8
  br label %53

53:                                               ; preds = %zend_ast_export_indent.exit, %zend_ast_export_indent.exit, %zend_ast_export_indent.exit, %zend_ast_export_indent.exit, %zend_ast_export_indent.exit, %zend_ast_export_indent.exit, %zend_ast_export_indent.exit, %zend_ast_export_indent.exit, %zend_ast_export_indent.exit, %zend_ast_export_indent.exit, %zend_ast_export_indent.exit, %zend_ast_export_indent.exit, %zend_ast_export_indent.exit, %46
  %54 = load ptr, ptr %0, align 8
  %.not70 = icmp eq ptr %54, null
  br i1 %.not70, label %61, label %55

55:                                               ; preds = %53
  %56 = getelementptr inbounds i8, ptr %54, i64 16
  %57 = load i64, ptr %56, align 8
  %58 = add i64 %57, 1
  %59 = getelementptr inbounds i8, ptr %0, i64 8
  %60 = load i64, ptr %59, align 8
  %.not71 = icmp ult i64 %58, %60
  br i1 %.not71, label %62, label %61

61:                                               ; preds = %53, %55
  %.059 = phi i64 [ 1, %53 ], [ %58, %55 ]
  tail call void @smart_str_erealloc(ptr noundef nonnull %0, i64 noundef %.059) #14
  %.pre75 = load ptr, ptr %0, align 8
  br label %62

62:                                               ; preds = %61, %55
  %63 = phi ptr [ %.pre75, %61 ], [ %54, %55 ]
  %.1 = phi i64 [ %.059, %61 ], [ %58, %55 ]
  %64 = getelementptr inbounds i8, ptr %63, i64 24
  %65 = add i64 %.1, -1
  %66 = getelementptr inbounds [1 x i8], ptr %64, i64 0, i64 %65
  store i8 10, ptr %66, align 1
  %67 = load ptr, ptr %0, align 8
  %68 = getelementptr inbounds i8, ptr %67, i64 16
  store i64 %.1, ptr %68, align 8
  br label %.loopexit

.loopexit:                                        ; preds = %10, %6, %3, %62
  ret void
}